; Function Attrs: mustprogress uwtable
define hidden void @_ZNK5zxing31GreyscaleRotatedLuminanceSource13getByteMatrixEv(ptr dead_on_unwind noalias writable writeonly sret(%"class.zxing::Ref") align 8 captures(none) %0, ptr noundef nonnull align 8 dereferenceable(60) %1) unnamed_addr #0 align 2 personality ptr @__gxx_personality_v0 {
  %3 = alloca %"class.zxing::ArrayRef", align 8
  %4 = tail call noalias noundef nonnull dereferenceable(40) ptr @_Znwm(i64 noundef 40) #10
  %5 = getelementptr inbounds nuw i8, ptr %1, i64 12
  %6 = load i32, ptr %5, align 4
  %7 = getelementptr inbounds nuw i8, ptr %1, i64 16
  %8 = load i32, ptr %7, align 8
  %9 = load ptr, ptr %1, align 8
  %10 = getelementptr inbounds nuw i8, ptr %9, i64 24
  %11 = load ptr, ptr %10, align 8
  invoke void %11(ptr dead_on_unwind nonnull writable sret(%"class.zxing::ArrayRef") align 8 %3, ptr noundef nonnull align 8 dereferenceable(60) %1)
          to label %12 unwind label %28

12:                                               ; preds = %2
  invoke void @_ZN5zxing10ByteMatrixC1EiiNS_8ArrayRefIcEE(ptr noundef nonnull align 8 dereferenceable(40) %4, i32 noundef %6, i32 noundef %8, ptr noundef nonnull %3)
          to label %13 unwind label %30

13:                                               ; preds = %12
  %14 = getelementptr inbounds nuw i8, ptr %4, i64 8
  %15 = load i32, ptr %14, align 8
  %16 = add i32 %15, 1
  store i32 %16, ptr %14, align 8
  store ptr %4, ptr %0, align 8
  store ptr getelementptr inbounds nuw inrange(-16, 16) (i8, ptr @_ZTVN5zxing8ArrayRefIcEE, i64 16), ptr %3, align 8
  %17 = getelementptr inbounds nuw i8, ptr %3, i64 16
  %18 = load ptr, ptr %17, align 8
  %.not.i = icmp eq ptr %18, null
  br i1 %.not.i, label %_ZN5zxing8ArrayRefIcED2Ev.exit, label %19

19:                                               ; preds = %13
  %20 = getelementptr inbounds nuw i8, ptr %18, i64 8
  %21 = load i32, ptr %20, align 8
  %22 = add i32 %21, -1
  store i32 %22, ptr %20, align 8
  %23 = icmp eq i32 %22, 0
  br i1 %23, label %24, label %_ZN5zxing8ArrayRefIcED2Ev.exit

24:                                               ; preds = %19
  store i32 -559026175, ptr %20, align 8
  %25 = load ptr, ptr %18, align 8
  %26 = getelementptr inbounds nuw i8, ptr %25, i64 8
  %27 = load ptr, ptr %26, align 8
  call void %27(ptr noundef nonnull align 8 dereferenceable(12) %18) #9
  br label %_ZN5zxing8ArrayRefIcED2Ev.exit

_ZN5zxing8ArrayRefIcED2Ev.exit:                   ; preds = %13, %19, %24
  ret void

28:                                               ; preds = %2
  %29 = landingpad { ptr, i32 }
          cleanup
  br label %43

30:                                               ; preds = %12
  %31 = landingpad { ptr, i32 }
          cleanup
  store ptr getelementptr inbounds nuw inrange(-16, 16) (i8, ptr @_ZTVN5zxing8ArrayRefIcEE, i64 16), ptr %3, align 8
  %32 = getelementptr inbounds nuw i8, ptr %3, i64 16
  %33 = load ptr, ptr %32, align 8
  %.not.i6 = icmp eq ptr %33, null
  br i1 %.not.i6, label %_ZN5zxing8ArrayRefIcED2Ev.exit7, label %34

34:                                               ; preds = %30
  %35 = getelementptr inbounds nuw i8, ptr %33, i64 8
  %36 = load i32, ptr %35, align 8
  %37 = add i32 %36, -1
  store i32 %37, ptr %35, align 8
  %38 = icmp eq i32 %37, 0
  br i1 %38, label %39, label %_ZN5zxing8ArrayRefIcED2Ev.exit7

39:                                               ; preds = %34
  store i32 -559026175, ptr %35, align 8
  %40 = load ptr, ptr %33, align 8
  %41 = getelementptr inbounds nuw i8, ptr %40, i64 8
  %42 = load ptr, ptr %41, align 8
  call void %42(ptr noundef nonnull align 8 dereferenceable(12) %33) #9
  br label %_ZN5zxing8ArrayRefIcED2Ev.exit7

_ZN5zxing8ArrayRefIcED2Ev.exit7:                  ; preds = %30, %34, %39
  store ptr null, ptr %32, align 8
  br label %43

43:                                               ; preds = %_ZN5zxing8ArrayRefIcED2Ev.exit7, %28
  %.pn = phi { ptr, i32 } [ %31, %_ZN5zxing8ArrayRefIcED2Ev.exit7 ], [ %29, %28 ]
  call void @_ZdlPv(ptr noundef nonnull %4) #11
  resume { ptr, i32 } %.pn
}